; Function Attrs: nounwind uwtable
define hidden i32 @mbedtls_ssl_session_reset_int(ptr noundef initializes((8, 12), (20, 24)) %0, i32 noundef %1) local_unnamed_addr #1 {
  %3 = getelementptr inbounds nuw i8, ptr %0, i64 8
  store i32 0, ptr %3, align 8, !tbaa !34
  %4 = load ptr, ptr %0, align 8, !tbaa !23
  %5 = load i32, ptr %4, align 8, !tbaa !82
  %6 = getelementptr inbounds nuw i8, ptr %0, i64 20
  store i32 %5, ptr %6, align 4, !tbaa !84
  tail call void @mbedtls_ssl_session_reset_msg_layer(ptr noundef nonnull %0, i32 noundef %1)
  %7 = getelementptr inbounds nuw i8, ptr %0, i64 12
  store i32 0, ptr %7, align 4, !tbaa !123
  %8 = getelementptr inbounds nuw i8, ptr %0, i64 16
  store i32 0, ptr %8, align 8, !tbaa !124
  %9 = getelementptr inbounds nuw i8, ptr %0, i64 472
  %10 = getelementptr inbounds nuw i8, ptr %0, i64 464
  store i32 0, ptr %10, align 8, !tbaa !125
  %11 = getelementptr inbounds nuw i8, ptr %0, i64 80
  %12 = getelementptr inbounds nuw i8, ptr %0, i64 96
  tail call void @llvm.memset.p0.i64(ptr noundef nonnull align 8 dereferenceable(16) %11, i8 0, i64 16, i1 false)
  tail call void @llvm.memset.p0.i64(ptr noundef nonnull align 8 dereferenceable(32) %9, i8 0, i64 32, i1 false)
  %13 = load ptr, ptr %12, align 8, !tbaa !126
  %.not = icmp eq ptr %13, null
  br i1 %.not, label %24, label %14

14:                                               ; preds = %2
  %15 = getelementptr inbounds nuw i8, ptr %13, i64 112
  %16 = load ptr, ptr %15, align 8, !tbaa !44
  %.not.i.i = icmp eq ptr %16, null
  br i1 %.not.i.i, label %mbedtls_ssl_session_free.exit, label %17

17:                                               ; preds = %14
  tail call void @mbedtls_x509_crt_free(ptr noundef nonnull %16) #26
  %18 = load ptr, ptr %15, align 8, !tbaa !44
  tail call void @free(ptr noundef %18) #26
  store ptr null, ptr %15, align 8, !tbaa !44
  br label %mbedtls_ssl_session_free.exit

mbedtls_ssl_session_free.exit:                    ; preds = %14, %17
  %19 = getelementptr inbounds nuw i8, ptr %13, i64 216
  %20 = load ptr, ptr %19, align 8, !tbaa !47
  tail call void @free(ptr noundef %20) #26
  %21 = getelementptr inbounds nuw i8, ptr %13, i64 128
  %22 = load ptr, ptr %21, align 8, !tbaa !48
  tail call void @free(ptr noundef %22) #26
  tail call void @mbedtls_platform_zeroize(ptr noundef nonnull %13, i64 noundef 496) #26
  %23 = load ptr, ptr %12, align 8, !tbaa !126
  tail call void @free(ptr noundef %23) #26
  store ptr null, ptr %12, align 8, !tbaa !126
  br label %24

24:                                               ; preds = %mbedtls_ssl_session_free.exit, %2
  %25 = getelementptr inbounds nuw i8, ptr %0, i64 440
  store ptr null, ptr %25, align 8, !tbaa !127
  %26 = icmp eq i32 %1, 0
  br i1 %26, label %27, label %30

27:                                               ; preds = %24
  %28 = getelementptr inbounds nuw i8, ptr %0, i64 448
  %29 = load ptr, ptr %28, align 8, !tbaa !128
  tail call void @free(ptr noundef %29) #26
  tail call void @llvm.memset.p0.i64(ptr noundef nonnull align 8 dereferenceable(16) %28, i8 0, i64 16, i1 false)
  br label %30

30:                                               ; preds = %27, %24
  %31 = tail call fastcc i32 @ssl_handshake_init(ptr noundef nonnull %0)
  ret i32 %31
}